target datalayout = "e-m:e-p270:32:32-p271:32:32-p272:64:64-i64:64-i128:128-f80:128-n8:16:32:64-S128"
target triple = "x86_64-pc-linux-gnu"

%struct.SDL_GPUDevice = type { ptr, ptr, ptr, ptr, ptr, ptr, ptr, ptr, ptr, ptr, ptr, ptr, ptr, ptr, ptr, ptr, ptr, ptr, ptr, ptr, ptr, ptr, ptr, ptr, ptr, ptr, ptr, ptr, ptr, ptr, ptr, ptr, ptr, ptr, ptr, ptr, ptr, ptr, ptr, ptr, ptr, ptr, ptr, ptr, ptr, ptr, ptr, ptr, ptr, ptr, ptr, ptr, ptr, ptr, ptr, ptr, ptr, ptr, ptr, ptr, ptr, ptr, ptr, ptr, ptr, ptr, ptr, ptr, ptr, ptr, ptr, ptr, ptr, ptr, ptr, ptr, ptr, ptr, ptr, ptr, ptr, ptr, ptr, ptr, ptr, i32, i8 }
%struct.CommandBufferCommonHeader = type { ptr, %struct.RenderPass, i8, %struct.Pass, i8, %struct.Pass, i8, i8, i8 }
%struct.RenderPass = type { ptr, i8, [4 x ptr], i32, ptr }
%struct.Pass = type { ptr, i8 }

@.str.4 = private unnamed_addr constant [26 x i8] c"Parameter '%s' is invalid\00", align 1
@.str.8 = private unnamed_addr constant [103 x i8] c"generated/home/dtcxzyw/WorkSpace/Projects/compilers/llvm-opt-benchmark/bench/sdl/SDL/src/gpu/SDL_gpu.c\00", align 1
@.str.179 = private unnamed_addr constant [15 x i8] c"command_buffer\00", align 1
@SDL_SubmitGPUCommandBufferAndAcquireFence_REAL.sdl_assert_data = internal global { i8, [3 x i8], i32, ptr, ptr, i32, [4 x i8], ptr, ptr } { i8 0, [3 x i8] zeroinitializer, i32 0, ptr @.str.181, ptr null, i32 0, [4 x i8] zeroinitializer, ptr null, ptr null }, align 8
@__func__.SDL_SubmitGPUCommandBufferAndAcquireFence_REAL = private unnamed_addr constant [47 x i8] c"SDL_SubmitGPUCommandBufferAndAcquireFence_REAL\00", align 1
@SDL_SubmitGPUCommandBufferAndAcquireFence_REAL.sdl_assert_data.369 = internal global { i8, [3 x i8], i32, ptr, ptr, i32, [4 x i8], ptr, ptr } { i8 0, [3 x i8] zeroinitializer, i32 0, ptr @.str.368, ptr null, i32 0, [4 x i8] zeroinitializer, ptr null, ptr null }, align 8

; Function Attrs: nounwind uwtable
define hidden ptr @SDL_SubmitGPUCommandBufferAndAcquireFence_REAL(ptr noundef %0) #0 {
  %2 = alloca ptr, align 8
  %3 = alloca ptr, align 8
  %4 = alloca ptr, align 8
  %5 = alloca i32, align 4
  %6 = alloca i32, align 4
  %7 = alloca i32, align 4
  store ptr %0, ptr %3, align 8
  call void @llvm.lifetime.start.p0(i64 8, ptr %4) #6
  %8 = load ptr, ptr %3, align 8
  store ptr %8, ptr %4, align 8
  %9 = load ptr, ptr %3, align 8
  %10 = icmp eq ptr %9, null
  br i1 %10, label %11, label %13

11:                                               ; preds = %1
  %12 = call zeroext i1 (ptr, ...) @SDL_SetError_REAL(ptr noundef @.str.4, ptr noundef @.str.179)
  store ptr null, ptr %2, align 8
  store i32 1, ptr %5, align 4
  br label %92

13:                                               ; preds = %1
  %14 = load ptr, ptr %3, align 8
  %15 = getelementptr inbounds nuw %struct.CommandBufferCommonHeader, ptr %14, i32 0, i32 0
  %16 = load ptr, ptr %15, align 8
  %17 = getelementptr inbounds nuw %struct.SDL_GPUDevice, ptr %16, i32 0, i32 86
  %18 = load i8, ptr %17, align 4, !range !5, !noundef !6
  %19 = trunc i8 %18 to i1
  br i1 %19, label %20, label %82

20:                                               ; preds = %13
  %21 = load ptr, ptr %3, align 8
  %22 = getelementptr inbounds nuw %struct.CommandBufferCommonHeader, ptr %21, i32 0, i32 7
  %23 = load i8, ptr %22, align 1, !range !5, !noundef !6
  %24 = trunc i8 %23 to i1
  br i1 %24, label %25, label %44

25:                                               ; preds = %20
  br label %26

26:                                               ; preds = %25
  br label %27

27:                                               ; preds = %39, %26
  br label %28

28:                                               ; preds = %27
  call void @llvm.lifetime.start.p0(i64 4, ptr %6) #6
  %29 = call i32 @SDL_ReportAssertion_REAL(ptr noundef @SDL_SubmitGPUCommandBufferAndAcquireFence_REAL.sdl_assert_data, ptr noundef @__func__.SDL_SubmitGPUCommandBufferAndAcquireFence_REAL, ptr noundef @.str.8, i32 noundef 3072)
  store i32 %29, ptr %6, align 4
  %30 = load i32, ptr %6, align 4
  %31 = icmp eq i32 %30, 0
  br i1 %31, label %32, label %33

32:                                               ; preds = %28
  store i32 4, ptr %5, align 4
  br label %39

33:                                               ; preds = %28
  %34 = load i32, ptr %6, align 4
  %35 = icmp eq i32 %34, 1
  br i1 %35, label %36, label %37

36:                                               ; preds = %33
  call void @llvm.debugtrap()
  br label %37

37:                                               ; preds = %36, %33
  br label %38

38:                                               ; preds = %37
  store i32 5, ptr %5, align 4
  br label %39

39:                                               ; preds = %38, %32
  call void @llvm.lifetime.end.p0(i64 4, ptr %6) #6
  %40 = load i32, ptr %5, align 4
  switch i32 %40, label %94 [
    i32 4, label %27
    i32 5, label %41
  ]

41:                                               ; preds = %39
  br label %42

42:                                               ; preds = %41
  br label %43

43:                                               ; preds = %42
  store ptr null, ptr %2, align 8
  store i32 1, ptr %5, align 4
  br label %92

44:                                               ; preds = %20
  %45 = load ptr, ptr %4, align 8
  %46 = getelementptr inbounds nuw %struct.CommandBufferCommonHeader, ptr %45, i32 0, i32 1
  %47 = getelementptr inbounds nuw %struct.RenderPass, ptr %46, i32 0, i32 1
  %48 = load i8, ptr %47, align 8, !range !5, !noundef !6
  %49 = trunc i8 %48 to i1
  br i1 %49, label %62, label %50

50:                                               ; preds = %44
  %51 = load ptr, ptr %4, align 8
  %52 = getelementptr inbounds nuw %struct.CommandBufferCommonHeader, ptr %51, i32 0, i32 3
  %53 = getelementptr inbounds nuw %struct.Pass, ptr %52, i32 0, i32 1
  %54 = load i8, ptr %53, align 8, !range !5, !noundef !6
  %55 = trunc i8 %54 to i1
  br i1 %55, label %62, label %56

56:                                               ; preds = %50
  %57 = load ptr, ptr %4, align 8
  %58 = getelementptr inbounds nuw %struct.CommandBufferCommonHeader, ptr %57, i32 0, i32 5
  %59 = getelementptr inbounds nuw %struct.Pass, ptr %58, i32 0, i32 1
  %60 = load i8, ptr %59, align 8, !range !5, !noundef !6
  %61 = trunc i8 %60 to i1
  br i1 %61, label %62, label %81

62:                                               ; preds = %56, %50, %44
  br label %63

63:                                               ; preds = %62
  br label %64

64:                                               ; preds = %76, %63
  br label %65

65:                                               ; preds = %64
  call void @llvm.lifetime.start.p0(i64 4, ptr %7) #6
  %66 = call i32 @SDL_ReportAssertion_REAL(ptr noundef @SDL_SubmitGPUCommandBufferAndAcquireFence_REAL.sdl_assert_data.369, ptr noundef @__func__.SDL_SubmitGPUCommandBufferAndAcquireFence_REAL, ptr noundef @.str.8, i32 noundef 3077)
  store i32 %66, ptr %7, align 4
  %67 = load i32, ptr %7, align 4
  %68 = icmp eq i32 %67, 0
  br i1 %68, label %69, label %70

69:                                               ; preds = %65
  store i32 8, ptr %5, align 4
  br label %76

70:                                               ; preds = %65
  %71 = load i32, ptr %7, align 4
  %72 = icmp eq i32 %71, 1
  br i1 %72, label %73, label %74

73:                                               ; preds = %70
  call void @llvm.debugtrap()
  br label %74

74:                                               ; preds = %73, %70
  br label %75

75:                                               ; preds = %74
  store i32 9, ptr %5, align 4
  br label %76

76:                                               ; preds = %75, %69
  call void @llvm.lifetime.end.p0(i64 4, ptr %7) #6
  %77 = load i32, ptr %5, align 4
  switch i32 %77, label %94 [
    i32 8, label %64
    i32 9, label %78
  ]

78:                                               ; preds = %76
  br label %79

79:                                               ; preds = %78
  br label %80

80:                                               ; preds = %79
  store ptr null, ptr %2, align 8
  store i32 1, ptr %5, align 4
  br label %92

81:                                               ; preds = %56
  br label %82

82:                                               ; preds = %81, %13
  %83 = load ptr, ptr %4, align 8
  %84 = getelementptr inbounds nuw %struct.CommandBufferCommonHeader, ptr %83, i32 0, i32 7
  store i8 1, ptr %84, align 1
  %85 = load ptr, ptr %3, align 8
  %86 = getelementptr inbounds nuw %struct.CommandBufferCommonHeader, ptr %85, i32 0, i32 0
  %87 = load ptr, ptr %86, align 8
  %88 = getelementptr inbounds nuw %struct.SDL_GPUDevice, ptr %87, i32 0, i32 75
  %89 = load ptr, ptr %88, align 8
  %90 = load ptr, ptr %3, align 8
  %91 = call ptr %89(ptr noundef %90)
  store ptr %91, ptr %2, align 8
  store i32 1, ptr %5, align 4
  br label %92

92:                                               ; preds = %82, %80, %43, %11
  call void @llvm.lifetime.end.p0(i64 8, ptr %4) #6
  %93 = load ptr, ptr %2, align 8
  ret ptr %93

94:                                               ; preds = %76, %39
  unreachable
}